; Function Attrs: mustprogress nounwind uwtable
define dso_local i64 @_ZNK5clang6interp11InterpFrame12getCallRangeEv(ptr noundef nonnull readonly align 8 captures(none) dereferenceable(216) %0) unnamed_addr #0 align 2 {
  %2 = getelementptr inbounds nuw i8, ptr %0, i64 8
  %3 = load ptr, ptr %2, align 8
  %4 = getelementptr inbounds nuw i8, ptr %3, i64 32
  %5 = load ptr, ptr %4, align 8
  %.not = icmp eq ptr %5, null
  %6 = getelementptr inbounds nuw i8, ptr %0, i64 16
  %7 = load ptr, ptr %6, align 8
  %8 = getelementptr inbounds nuw i8, ptr %7, i64 16
  br i1 %.not, label %9, label %17

9:                                                ; preds = %1
  %10 = tail call i64 @_ZNK5clang6interp12SourceMapper8getRangeEPKNS0_8FunctionENS0_7CodePtrE(ptr noundef nonnull align 8 dereferenceable(8) %8, ptr noundef null, ptr null) #13
  %.sroa.02.0.extract.trunc = trunc i64 %10 to i32
  %.sroa.5.0.extract.shift = lshr i64 %10, 32
  %.sroa.5.0.extract.trunc = trunc nuw i64 %.sroa.5.0.extract.shift to i32
  %11 = icmp ne i32 %.sroa.02.0.extract.trunc, 0
  %12 = icmp ugt i64 %10, 4294967295
  %13 = and i1 %12, %11
  br i1 %13, label %22, label %14

14:                                               ; preds = %9
  %15 = load ptr, ptr %6, align 8
  %16 = getelementptr inbounds nuw i8, ptr %15, i64 200
  %.sroa.01.0.copyload = load i32, ptr %16, align 8
  br label %22

17:                                               ; preds = %1
  %18 = getelementptr inbounds nuw i8, ptr %0, i64 152
  %19 = load ptr, ptr %18, align 8
  %20 = getelementptr inbounds i8, ptr %19, i64 -8
  %21 = tail call i64 @_ZNK5clang6interp12SourceMapper8getRangeEPKNS0_8FunctionENS0_7CodePtrE(ptr noundef nonnull align 8 dereferenceable(8) %8, ptr noundef nonnull %5, ptr nonnull %20) #13
  %.sroa.02.0.extract.trunc3 = trunc i64 %21 to i32
  %.sroa.5.0.extract.shift5 = lshr i64 %21, 32
  %.sroa.5.0.extract.trunc6 = trunc nuw i64 %.sroa.5.0.extract.shift5 to i32
  br label %22

22:                                               ; preds = %9, %17, %14
  %.sroa.02.0 = phi i32 [ %.sroa.02.0.extract.trunc, %9 ], [ %.sroa.01.0.copyload, %14 ], [ %.sroa.02.0.extract.trunc3, %17 ]
  %.sroa.5.0 = phi i32 [ %.sroa.5.0.extract.trunc, %9 ], [ %.sroa.01.0.copyload, %14 ], [ %.sroa.5.0.extract.trunc6, %17 ]
  %.sroa.5.0.insert.ext = zext i32 %.sroa.5.0 to i64
  %.sroa.5.0.insert.shift = shl nuw i64 %.sroa.5.0.insert.ext, 32
  %.sroa.02.0.insert.ext = zext i32 %.sroa.02.0 to i64
  %.sroa.02.0.insert.insert = or disjoint i64 %.sroa.5.0.insert.shift, %.sroa.02.0.insert.ext
  ret i64 %.sroa.02.0.insert.insert
}